#include <math.h>
#include <stdio.h>
#include <stdlib.h>
#include <string.h>

void main()
{
	int n,a[100],i,j,k=0;
	scanf("%d",&n);
	for(i=0;i<n;i++)
		scanf("%d",&a[i]);
	for(i=0;i<n;i++)
	{
		for(j=i+1;j<n;j++)
		{
			
			if(a[j]==a[i])
				a[j]=0;
			

		}
	}

	printf("%d",a[0]);
	for(i=1;i<n;i++)
	{	if(a[i]!=0)
	printf(",%d",a[i]);}
}
	